; Function Attrs: mustprogress uwtable
define internal fastcc void @_ZN6googleL18DebugWriteToStringEPKcPv(ptr noundef %0, ptr noundef %1) unnamed_addr #0 personality ptr @__gxx_personality_v0 {
  %3 = tail call noundef i64 @strlen(ptr noundef nonnull dereferenceable(1) %0) #26
  %4 = getelementptr inbounds nuw i8, ptr %1, i64 8
  %5 = load i64, ptr %4, align 8, !tbaa !54
  %6 = sub i64 4611686018427387903, %5
  %7 = icmp ult i64 %6, %3
  br i1 %7, label %8, label %_ZNSt7__cxx1112basic_stringIcSt11char_traitsIcESaIcEE6appendEPKc.exit

8:                                                ; preds = %2
  tail call void @_ZSt20__throw_length_errorPKc(ptr noundef nonnull @.str.15) #28
  unreachable

_ZNSt7__cxx1112basic_stringIcSt11char_traitsIcESaIcEE6appendEPKc.exit: ; preds = %2
  %9 = tail call noundef nonnull align 8 dereferenceable(32) ptr @_ZNSt7__cxx1112basic_stringIcSt11char_traitsIcESaIcEE9_M_appendEPKcm(ptr noundef nonnull align 8 dereferenceable(32) %1, ptr noundef nonnull %0, i64 noundef %3)
  ret void
}